target datalayout = "e-m:e-p270:32:32-p271:32:32-p272:64:64-i64:64-i128:128-f80:128-n8:16:32:64-S128"
target triple = "x86_64-pc-linux-gnu"

%struct.lua_TValue = type { %union.Value, [1 x i32], i32 }
%union.Value = type { ptr }

; Function Attrs: mustprogress nounwind uwtable
define internal noundef i32 @_ZL10luauF_bxorP9lua_StateP10lua_TValueS2_iS2_i(ptr noundef %0, ptr noundef %1, ptr noundef %2, i32 noundef %3, ptr noundef %4, i32 noundef %5) #0 {
  %7 = alloca i32, align 4
  %8 = alloca ptr, align 8
  %9 = alloca ptr, align 8
  %10 = alloca ptr, align 8
  %11 = alloca i32, align 4
  %12 = alloca ptr, align 8
  %13 = alloca i32, align 4
  %14 = alloca double, align 8
  %15 = alloca double, align 8
  %16 = alloca i32, align 4
  %17 = alloca i32, align 4
  %18 = alloca i32, align 4
  %19 = alloca i32, align 4
  %20 = alloca i32, align 4
  %21 = alloca double, align 8
  %22 = alloca i32, align 4
  %23 = alloca ptr, align 8
  store ptr %0, ptr %8, align 8, !tbaa !4
  store ptr %1, ptr %9, align 8, !tbaa !9
  store ptr %2, ptr %10, align 8, !tbaa !9
  store i32 %3, ptr %11, align 4, !tbaa !11
  store ptr %4, ptr %12, align 8, !tbaa !9
  store i32 %5, ptr %13, align 4, !tbaa !11
  %24 = load i32, ptr %13, align 4, !tbaa !11
  %25 = icmp sge i32 %24, 2
  br i1 %25, label %26, label %98

26:                                               ; preds = %6
  %27 = load i32, ptr %11, align 4, !tbaa !11
  %28 = icmp sle i32 %27, 1
  br i1 %28, label %29, label %98

29:                                               ; preds = %26
  %30 = load ptr, ptr %10, align 8, !tbaa !9
  %31 = getelementptr inbounds nuw %struct.lua_TValue, ptr %30, i32 0, i32 2
  %32 = load i32, ptr %31, align 4, !tbaa !13
  %33 = icmp eq i32 %32, 3
  br i1 %33, label %34, label %98

34:                                               ; preds = %29
  %35 = load ptr, ptr %12, align 8, !tbaa !9
  %36 = getelementptr inbounds nuw %struct.lua_TValue, ptr %35, i32 0, i32 2
  %37 = load i32, ptr %36, align 4, !tbaa !13
  %38 = icmp eq i32 %37, 3
  br i1 %38, label %39, label %98

39:                                               ; preds = %34
  call void @llvm.lifetime.start.p0(i64 8, ptr %14) #17
  %40 = load ptr, ptr %10, align 8, !tbaa !9
  %41 = getelementptr inbounds nuw %struct.lua_TValue, ptr %40, i32 0, i32 0
  %42 = load double, ptr %41, align 8, !tbaa !15
  store double %42, ptr %14, align 8, !tbaa !16
  call void @llvm.lifetime.start.p0(i64 8, ptr %15) #17
  %43 = load ptr, ptr %12, align 8, !tbaa !9
  %44 = getelementptr inbounds nuw %struct.lua_TValue, ptr %43, i32 0, i32 0
  %45 = load double, ptr %44, align 8, !tbaa !15
  store double %45, ptr %15, align 8, !tbaa !16
  call void @llvm.lifetime.start.p0(i64 4, ptr %16) #17
  call void @llvm.lifetime.start.p0(i64 4, ptr %17) #17
  %46 = load double, ptr %14, align 8, !tbaa !16
  %47 = fptosi double %46 to i64
  %48 = trunc i64 %47 to i32
  store i32 %48, ptr %16, align 4, !tbaa !11
  %49 = load double, ptr %15, align 8, !tbaa !16
  %50 = fptosi double %49 to i64
  %51 = trunc i64 %50 to i32
  store i32 %51, ptr %17, align 4, !tbaa !11
  call void @llvm.lifetime.start.p0(i64 4, ptr %18) #17
  %52 = load i32, ptr %16, align 4, !tbaa !11
  %53 = load i32, ptr %17, align 4, !tbaa !11
  %54 = xor i32 %52, %53
  store i32 %54, ptr %18, align 4, !tbaa !11
  call void @llvm.lifetime.start.p0(i64 4, ptr %19) #17
  store i32 3, ptr %19, align 4, !tbaa !11
  br label %55

55:                                               ; preds = %84, %39
  %56 = load i32, ptr %19, align 4, !tbaa !11
  %57 = load i32, ptr %13, align 4, !tbaa !11
  %58 = icmp sle i32 %56, %57
  br i1 %58, label %60, label %59

59:                                               ; preds = %55
  store i32 2, ptr %20, align 4
  br label %87

60:                                               ; preds = %55
  %61 = load ptr, ptr %12, align 8, !tbaa !9
  %62 = load i32, ptr %19, align 4, !tbaa !11
  %63 = sub nsw i32 %62, 2
  %64 = sext i32 %63 to i64
  %65 = getelementptr inbounds %struct.lua_TValue, ptr %61, i64 %64
  %66 = getelementptr inbounds nuw %struct.lua_TValue, ptr %65, i32 0, i32 2
  %67 = load i32, ptr %66, align 4, !tbaa !13
  %68 = icmp eq i32 %67, 3
  br i1 %68, label %70, label %69

69:                                               ; preds = %60
  store i32 -1, ptr %7, align 4
  store i32 1, ptr %20, align 4
  br label %87

70:                                               ; preds = %60
  call void @llvm.lifetime.start.p0(i64 8, ptr %21) #17
  %71 = load ptr, ptr %12, align 8, !tbaa !9
  %72 = load i32, ptr %19, align 4, !tbaa !11
  %73 = sub nsw i32 %72, 2
  %74 = sext i32 %73 to i64
  %75 = getelementptr inbounds %struct.lua_TValue, ptr %71, i64 %74
  %76 = getelementptr inbounds nuw %struct.lua_TValue, ptr %75, i32 0, i32 0
  %77 = load double, ptr %76, align 8, !tbaa !15
  store double %77, ptr %21, align 8, !tbaa !16
  call void @llvm.lifetime.start.p0(i64 4, ptr %22) #17
  %78 = load double, ptr %21, align 8, !tbaa !16
  %79 = fptosi double %78 to i64
  %80 = trunc i64 %79 to i32
  store i32 %80, ptr %22, align 4, !tbaa !11
  %81 = load i32, ptr %22, align 4, !tbaa !11
  %82 = load i32, ptr %18, align 4, !tbaa !11
  %83 = xor i32 %82, %81
  store i32 %83, ptr %18, align 4, !tbaa !11
  call void @llvm.lifetime.end.p0(i64 4, ptr %22) #17
  call void @llvm.lifetime.end.p0(i64 8, ptr %21) #17
  br label %84

84:                                               ; preds = %70
  %85 = load i32, ptr %19, align 4, !tbaa !11
  %86 = add nsw i32 %85, 1
  store i32 %86, ptr %19, align 4, !tbaa !11
  br label %55, !llvm.loop !25

87:                                               ; preds = %69, %59
  call void @llvm.lifetime.end.p0(i64 4, ptr %19) #17
  %88 = load i32, ptr %20, align 4
  switch i32 %88, label %97 [
    i32 2, label %89
  ]

89:                                               ; preds = %87
  call void @llvm.lifetime.start.p0(i64 8, ptr %23) #17
  %90 = load ptr, ptr %9, align 8, !tbaa !9
  store ptr %90, ptr %23, align 8, !tbaa !9
  %91 = load i32, ptr %18, align 4, !tbaa !11
  %92 = uitofp i32 %91 to double
  %93 = load ptr, ptr %23, align 8, !tbaa !9
  %94 = getelementptr inbounds nuw %struct.lua_TValue, ptr %93, i32 0, i32 0
  store double %92, ptr %94, align 8, !tbaa !15
  %95 = load ptr, ptr %23, align 8, !tbaa !9
  %96 = getelementptr inbounds nuw %struct.lua_TValue, ptr %95, i32 0, i32 2
  store i32 3, ptr %96, align 4, !tbaa !13
  call void @llvm.lifetime.end.p0(i64 8, ptr %23) #17
  store i32 1, ptr %7, align 4
  store i32 1, ptr %20, align 4
  br label %97

97:                                               ; preds = %89, %87
  call void @llvm.lifetime.end.p0(i64 4, ptr %18) #17
  call void @llvm.lifetime.end.p0(i64 4, ptr %17) #17
  call void @llvm.lifetime.end.p0(i64 4, ptr %16) #17
  call void @llvm.lifetime.end.p0(i64 8, ptr %15) #17
  call void @llvm.lifetime.end.p0(i64 8, ptr %14) #17
  br label %99

98:                                               ; preds = %34, %29, %26, %6
  store i32 -1, ptr %7, align 4
  br label %99

99:                                               ; preds = %98, %97
  %100 = load i32, ptr %7, align 4
  ret i32 %100
}